; Function Attrs: mustprogress uwtable
define internal fastcc noundef zeroext i1 @_ZL6is_iffR11ast_managerP4exprRS2_S3_(ptr noundef nonnull align 8 dereferenceable(976) %0, ptr noundef readonly captures(none) %1, ptr noundef nonnull align 8 captures(none) dereferenceable(8) %2, ptr noundef nonnull writeonly align 8 captures(none) dereferenceable(8) %3) unnamed_addr #3 {
  %5 = getelementptr inbounds nuw i8, ptr %1, i64 4
  %6 = load i32, ptr %5, align 4
  %7 = and i32 %6, 65535
  %8 = icmp eq i32 %7, 0
  br i1 %8, label %9, label %_ZNK11ast_manager6is_iffEPK4exprRPS0_S4_.exit.thread

9:                                                ; preds = %4
  %10 = getelementptr inbounds nuw i8, ptr %1, i64 16
  %11 = load ptr, ptr %10, align 8, !tbaa !234
  %12 = getelementptr inbounds nuw i8, ptr %11, i64 24
  %13 = load ptr, ptr %12, align 8, !tbaa !235
  %.not.i.i.i.i.i.i = icmp eq ptr %13, null
  br i1 %.not.i.i.i.i.i.i, label %_ZNK11ast_manager6is_iffEPK4exprRPS0_S4_.exit.thread, label %_ZNK11ast_manager5is_eqEPK4expr.exit.i.i

_ZNK11ast_manager5is_eqEPK4expr.exit.i.i:         ; preds = %9
  %14 = load i32, ptr %13, align 8, !tbaa !238
  %15 = icmp eq i32 %14, 0
  %16 = getelementptr inbounds nuw i8, ptr %13, i64 4
  %17 = load i32, ptr %16, align 4
  %18 = icmp eq i32 %17, 2
  %19 = select i1 %15, i1 %18, i1 false
  br i1 %19, label %20, label %_ZNK11ast_manager6is_iffEPK4exprRPS0_S4_.exit.thread

20:                                               ; preds = %_ZNK11ast_manager5is_eqEPK4expr.exit.i.i
  %21 = getelementptr inbounds nuw i8, ptr %1, i64 24
  %22 = load i32, ptr %21, align 8, !tbaa !229
  %23 = icmp eq i32 %22, 2
  br i1 %23, label %_ZNK11ast_manager6is_iffEPK4exprRPS0_S4_.exit, label %_ZNK11ast_manager6is_iffEPK4exprRPS0_S4_.exit.thread

_ZNK11ast_manager6is_iffEPK4exprRPS0_S4_.exit:    ; preds = %20
  %24 = getelementptr inbounds nuw i8, ptr %1, i64 32
  %25 = load ptr, ptr %24, align 8, !tbaa !91
  store ptr %25, ptr %2, align 8, !tbaa !91
  %26 = getelementptr inbounds nuw i8, ptr %1, i64 40
  %27 = load ptr, ptr %26, align 8, !tbaa !91
  store ptr %27, ptr %3, align 8, !tbaa !91
  %28 = load ptr, ptr %2, align 8, !tbaa !91
  %29 = tail call noundef zeroext i1 @_ZNK11ast_manager7is_boolEPK4expr(ptr noundef nonnull align 8 dereferenceable(976) %0, ptr noundef %28)
  br i1 %29, label %55, label %_ZNK11ast_manager6is_iffEPK4exprRPS0_S4_.exit._ZNK11ast_manager6is_iffEPK4exprRPS0_S4_.exit.thread_crit_edge

_ZNK11ast_manager6is_iffEPK4exprRPS0_S4_.exit._ZNK11ast_manager6is_iffEPK4exprRPS0_S4_.exit.thread_crit_edge: ; preds = %_ZNK11ast_manager6is_iffEPK4exprRPS0_S4_.exit
  %.pre = load i32, ptr %5, align 4
  br label %_ZNK11ast_manager6is_iffEPK4exprRPS0_S4_.exit.thread

_ZNK11ast_manager6is_iffEPK4exprRPS0_S4_.exit.thread: ; preds = %_ZNK11ast_manager6is_iffEPK4exprRPS0_S4_.exit._ZNK11ast_manager6is_iffEPK4exprRPS0_S4_.exit.thread_crit_edge, %9, %4, %_ZNK11ast_manager5is_eqEPK4expr.exit.i.i, %20
  %30 = phi i32 [ %.pre, %_ZNK11ast_manager6is_iffEPK4exprRPS0_S4_.exit._ZNK11ast_manager6is_iffEPK4exprRPS0_S4_.exit.thread_crit_edge ], [ %6, %9 ], [ %6, %4 ], [ %6, %_ZNK11ast_manager5is_eqEPK4expr.exit.i.i ], [ %6, %20 ]
  %31 = and i32 %30, 65535
  %32 = icmp eq i32 %31, 0
  br i1 %32, label %33, label %_ZNK11ast_manager5is_eqEPK4exprRPS0_S4_.exit.thread

33:                                               ; preds = %_ZNK11ast_manager6is_iffEPK4exprRPS0_S4_.exit.thread
  %34 = getelementptr inbounds nuw i8, ptr %1, i64 16
  %35 = load ptr, ptr %34, align 8, !tbaa !234
  %36 = getelementptr inbounds nuw i8, ptr %35, i64 24
  %37 = load ptr, ptr %36, align 8, !tbaa !235
  %.not.i.i.i.i.i = icmp eq ptr %37, null
  br i1 %.not.i.i.i.i.i, label %_ZNK11ast_manager5is_eqEPK4exprRPS0_S4_.exit.thread, label %_ZNK11ast_manager5is_eqEPK4expr.exit.i

_ZNK11ast_manager5is_eqEPK4expr.exit.i:           ; preds = %33
  %38 = load i32, ptr %37, align 8, !tbaa !238
  %39 = icmp eq i32 %38, 0
  %40 = getelementptr inbounds nuw i8, ptr %37, i64 4
  %41 = load i32, ptr %40, align 4
  %42 = icmp eq i32 %41, 2
  %43 = select i1 %39, i1 %42, i1 false
  br i1 %43, label %44, label %_ZNK11ast_manager5is_eqEPK4exprRPS0_S4_.exit.thread

44:                                               ; preds = %_ZNK11ast_manager5is_eqEPK4expr.exit.i
  %45 = getelementptr inbounds nuw i8, ptr %1, i64 24
  %46 = load i32, ptr %45, align 8, !tbaa !229
  %47 = icmp eq i32 %46, 2
  br i1 %47, label %48, label %_ZNK11ast_manager5is_eqEPK4exprRPS0_S4_.exit.thread

48:                                               ; preds = %44
  %49 = getelementptr inbounds nuw i8, ptr %1, i64 32
  %50 = load ptr, ptr %49, align 8, !tbaa !91
  store ptr %50, ptr %2, align 8, !tbaa !91
  %51 = getelementptr inbounds nuw i8, ptr %1, i64 40
  %52 = load ptr, ptr %51, align 8, !tbaa !91
  store ptr %52, ptr %3, align 8, !tbaa !91
  %53 = load ptr, ptr %2, align 8, !tbaa !91
  %54 = tail call noundef zeroext i1 @_ZNK11ast_manager7is_boolEPK4expr(ptr noundef nonnull align 8 dereferenceable(976) %0, ptr noundef %53)
  br i1 %54, label %55, label %_ZNK11ast_manager5is_eqEPK4exprRPS0_S4_.exit.thread

_ZNK11ast_manager5is_eqEPK4exprRPS0_S4_.exit.thread: ; preds = %33, %_ZNK11ast_manager6is_iffEPK4exprRPS0_S4_.exit.thread, %_ZNK11ast_manager5is_eqEPK4expr.exit.i, %44, %48
  br label %55

55:                                               ; preds = %48, %_ZNK11ast_manager6is_iffEPK4exprRPS0_S4_.exit, %_ZNK11ast_manager5is_eqEPK4exprRPS0_S4_.exit.thread
  %.0 = phi i1 [ false, %_ZNK11ast_manager5is_eqEPK4exprRPS0_S4_.exit.thread ], [ true, %_ZNK11ast_manager6is_iffEPK4exprRPS0_S4_.exit ], [ true, %48 ]
  ret i1 %.0
}